target datalayout = "e-m:e-p270:32:32-p271:32:32-p272:64:64-i64:64-i128:128-f80:128-n8:16:32:64-S128"
target triple = "x86_64-pc-linux-gnu"

%"class.open3d::core::Dtype" = type { i32, i64, [16 x i8] }
%"class.open3d::core::IsDevice" = type { ptr }
%"class.std::__shared_count" = type { ptr }
%"class.open3d::core::SizeVector" = type { %"class.open3d::core::SmallVector" }
%"class.open3d::core::SmallVector" = type { %"class.open3d::core::SmallVectorImpl", %"struct.open3d::core::SmallVectorStorage" }
%"class.open3d::core::SmallVectorImpl" = type { %"class.open3d::core::SmallVectorTemplateBase" }
%"class.open3d::core::SmallVectorTemplateBase" = type { %"class.open3d::core::SmallVectorTemplateCommon" }
%"class.open3d::core::SmallVectorTemplateCommon" = type { %"class.open3d::core::SmallVectorBase" }
%"class.open3d::core::SmallVectorBase" = type { ptr, i32, i32 }
%"struct.open3d::core::SmallVectorStorage" = type { [32 x i8] }
%"class.open3d::core::Tensor" = type { %"class.open3d::core::IsDevice", %"class.open3d::core::SizeVector", %"class.open3d::core::SizeVector", ptr, %"class.open3d::core::Dtype", %"class.std::shared_ptr.7" }
%"class.std::shared_ptr.7" = type { %"class.std::__shared_ptr.8" }
%"class.std::__shared_ptr.8" = type { ptr, %"class.std::__shared_count" }
%"class.std::initializer_list.30" = type { ptr, i64 }

@_ZTVN6open3d4core8IsDeviceE = linkonce_odr unnamed_addr constant { [5 x ptr] } { [5 x ptr] [ptr null, ptr @_ZTIN6open3d4core8IsDeviceE, ptr @_ZN6open3d4core8IsDeviceD2Ev, ptr @_ZN6open3d4core8IsDeviceD0Ev, ptr @__cxa_pure_virtual] }, comdat, align 8
@_ZTVN6open3d4core6TensorE = external unnamed_addr constant { [5 x ptr] }, align 8
@_ZN6open3d4core9UndefinedE = external global %"class.open3d::core::Dtype", align 8

; Function Attrs: mustprogress nounwind ssp uwtable
define linkonce_odr noundef ptr @_ZNK6open3d4core25SmallVectorTemplateCommonIlvE10getFirstElEv(ptr noundef nonnull align 8 dereferenceable(16) %0) #0 comdat align 2 {
  %2 = alloca ptr, align 8
  store ptr %0, ptr %2, align 8, !tbaa !82
  %3 = load ptr, ptr %2, align 8
  %4 = getelementptr inbounds nuw i8, ptr %3, i64 16
  ret ptr %4
}

; Function Attrs: mustprogress nounwind ssp uwtable
define linkonce_odr void @_ZNSt14__shared_countILN9__gnu_cxx12_Lock_policyE2EEC2Ev(ptr noundef nonnull align 8 dereferenceable(8) %0) unnamed_addr #0 comdat align 2 {
  %2 = alloca ptr, align 8
  store ptr %0, ptr %2, align 8, !tbaa !61
  %3 = load ptr, ptr %2, align 8
  %4 = getelementptr inbounds nuw %"class.std::__shared_count", ptr %3, i32 0, i32 0
  store ptr null, ptr %4, align 8, !tbaa !63
  ret void
}

; Function Attrs: mustprogress ssp uwtable
define linkonce_odr noundef zeroext i1 @_ZNK6open3d4core25SmallVectorTemplateCommonIlvE7isSmallEv(ptr noundef nonnull align 8 dereferenceable(16) %0) #1 comdat align 2 {
  %2 = alloca ptr, align 8
  store ptr %0, ptr %2, align 8, !tbaa !82
  %3 = load ptr, ptr %2, align 8
  %4 = getelementptr inbounds nuw %"class.open3d::core::SmallVectorBase", ptr %3, i32 0, i32 0
  %5 = load ptr, ptr %4, align 8, !tbaa !84
  %6 = call noundef ptr @_ZNK6open3d4core25SmallVectorTemplateCommonIlvE10getFirstElEv(ptr noundef nonnull align 8 dereferenceable(16) %3)
  %7 = icmp eq ptr %5, %6
  ret i1 %7
}

; Function Attrs: mustprogress nounwind ssp uwtable
define linkonce_odr noundef i64 @_ZNK6open3d4core15SmallVectorBaseIjE4sizeEv(ptr noundef nonnull align 8 dereferenceable(16) %0) #0 comdat align 2 {
  %2 = alloca ptr, align 8
  store ptr %0, ptr %2, align 8, !tbaa !89
  %3 = load ptr, ptr %2, align 8
  %4 = getelementptr inbounds nuw %"class.open3d::core::SmallVectorBase", ptr %3, i32 0, i32 1
  %5 = load i32, ptr %4, align 8, !tbaa !91
  %6 = zext i32 %5 to i64
  ret i64 %6
}

; Function Attrs: mustprogress nounwind ssp uwtable
define linkonce_odr void @_ZNSt12__shared_ptrIN6open3d4core4BlobELN9__gnu_cxx12_Lock_policyE2EEC2Ev(ptr noundef nonnull align 8 dereferenceable(16) %0) unnamed_addr #0 comdat align 2 {
  %2 = alloca ptr, align 8
  store ptr %0, ptr %2, align 8, !tbaa !193
  %3 = load ptr, ptr %2, align 8
  %4 = getelementptr inbounds nuw %"class.std::__shared_ptr.8", ptr %3, i32 0, i32 0
  store ptr null, ptr %4, align 8, !tbaa !195
  %5 = getelementptr inbounds nuw %"class.std::__shared_ptr.8", ptr %3, i32 0, i32 1
  call void @_ZNSt14__shared_countILN9__gnu_cxx12_Lock_policyE2EEC2Ev(ptr noundef nonnull align 8 dereferenceable(8) %5) #27
  ret void
}

; Function Attrs: noinline noreturn nounwind ssp uwtable
define linkonce_odr hidden void @__clang_call_terminate(ptr noundef %0) #13 comdat {
  %2 = call ptr @__cxa_begin_catch(ptr %0) #27
  call void @_ZSt9terminatev() #29
  unreachable
}

; Function Attrs: mustprogress nounwind ssp uwtable
define linkonce_odr void @_ZN6open3d4core15SmallVectorImplIlED2Ev(ptr noundef nonnull align 8 dereferenceable(16) %0) unnamed_addr #0 comdat align 2 personality ptr @__gxx_personality_v0 {
  %2 = alloca ptr, align 8
  store ptr %0, ptr %2, align 8, !tbaa !87
  %3 = load ptr, ptr %2, align 8
  %4 = invoke noundef zeroext i1 @_ZNK6open3d4core25SmallVectorTemplateCommonIlvE7isSmallEv(ptr noundef nonnull align 8 dereferenceable(16) %3)
          to label %5 unwind label %9

5:                                                ; preds = %1
  br i1 %4, label %8, label %6

6:                                                ; preds = %5
  %7 = call noundef ptr @_ZN6open3d4core25SmallVectorTemplateCommonIlvE5beginEv(ptr noundef nonnull align 8 dereferenceable(16) %3)
  call void @free(ptr noundef %7) #27
  br label %8

8:                                                ; preds = %6, %5
  ret void

9:                                                ; preds = %1
  %10 = landingpad { ptr, i32 }
          catch ptr null
  %11 = extractvalue { ptr, i32 } %10, 0
  call void @__clang_call_terminate(ptr %11) #29
  unreachable
}

; Function Attrs: mustprogress nounwind ssp uwtable
define linkonce_odr void @_ZN6open3d4core23SmallVectorTemplateBaseIlLb1EE13destroy_rangeEPlS3_(ptr noundef %0, ptr noundef %1) #0 comdat align 2 {
  %3 = alloca ptr, align 8
  %4 = alloca ptr, align 8
  store ptr %0, ptr %3, align 8, !tbaa !76
  store ptr %1, ptr %4, align 8, !tbaa !76
  ret void
}

; Function Attrs: mustprogress ssp uwtable
define linkonce_odr noundef ptr @_ZN6open3d4core25SmallVectorTemplateCommonIlvE3endEv(ptr noundef nonnull align 8 dereferenceable(16) %0) #1 comdat align 2 {
  %2 = alloca ptr, align 8
  store ptr %0, ptr %2, align 8, !tbaa !82
  %3 = load ptr, ptr %2, align 8
  %4 = call noundef ptr @_ZN6open3d4core25SmallVectorTemplateCommonIlvE5beginEv(ptr noundef nonnull align 8 dereferenceable(16) %3)
  %5 = call noundef i64 @_ZNK6open3d4core15SmallVectorBaseIjE4sizeEv(ptr noundef nonnull align 8 dereferenceable(16) %3)
  %6 = getelementptr inbounds nuw i64, ptr %4, i64 %5
  ret ptr %6
}

; Function Attrs: mustprogress nounwind ssp uwtable
define linkonce_odr noundef ptr @_ZN6open3d4core25SmallVectorTemplateCommonIlvE5beginEv(ptr noundef nonnull align 8 dereferenceable(16) %0) #0 comdat align 2 {
  %2 = alloca ptr, align 8
  store ptr %0, ptr %2, align 8, !tbaa !82
  %3 = load ptr, ptr %2, align 8
  %4 = getelementptr inbounds nuw %"class.open3d::core::SmallVectorBase", ptr %3, i32 0, i32 0
  %5 = load ptr, ptr %4, align 8, !tbaa !84
  ret ptr %5
}

; Function Attrs: mustprogress nounwind ssp uwtable
define linkonce_odr void @_ZNSt10shared_ptrIN6open3d4core4BlobEEC2Ev(ptr noundef nonnull align 8 dereferenceable(16) %0) unnamed_addr #0 comdat align 2 {
  %2 = alloca ptr, align 8
  store ptr %0, ptr %2, align 8, !tbaa !189
  %3 = load ptr, ptr %2, align 8
  call void @_ZNSt12__shared_ptrIN6open3d4core4BlobELN9__gnu_cxx12_Lock_policyE2EEC2Ev(ptr noundef nonnull align 8 dereferenceable(16) %3) #27
  ret void
}

; Function Attrs: mustprogress nounwind ssp uwtable
define linkonce_odr void @_ZN6open3d4core8IsDeviceD2Ev(ptr noundef nonnull align 8 dereferenceable(8) %0) unnamed_addr #0 comdat align 2 {
  %2 = alloca ptr, align 8
  store ptr %0, ptr %2, align 8, !tbaa !30
  ret void
}

; Function Attrs: mustprogress nounwind ssp uwtable
define linkonce_odr void @_ZN6open3d4core11SmallVectorIlLj4EED2Ev(ptr noundef nonnull align 8 dereferenceable(48) %0) unnamed_addr #0 comdat align 2 personality ptr @__gxx_personality_v0 {
  %2 = alloca ptr, align 8
  store ptr %0, ptr %2, align 8, !tbaa !40
  %3 = load ptr, ptr %2, align 8
  %4 = invoke noundef ptr @_ZN6open3d4core25SmallVectorTemplateCommonIlvE5beginEv(ptr noundef nonnull align 8 dereferenceable(16) %3)
          to label %5 unwind label %9

5:                                                ; preds = %1
  %6 = invoke noundef ptr @_ZN6open3d4core25SmallVectorTemplateCommonIlvE3endEv(ptr noundef nonnull align 8 dereferenceable(16) %3)
          to label %7 unwind label %9

7:                                                ; preds = %5
  invoke void @_ZN6open3d4core23SmallVectorTemplateBaseIlLb1EE13destroy_rangeEPlS3_(ptr noundef %4, ptr noundef %6)
          to label %8 unwind label %9

8:                                                ; preds = %7
  call void @_ZN6open3d4core15SmallVectorImplIlED2Ev(ptr noundef nonnull align 8 dereferenceable(16) %3) #27
  ret void

9:                                                ; preds = %7, %5, %1
  %10 = landingpad { ptr, i32 }
          catch ptr null
  %11 = extractvalue { ptr, i32 } %10, 0
  call void @__clang_call_terminate(ptr %11) #29
  unreachable
}

; Function Attrs: mustprogress nounwind ssp uwtable
define linkonce_odr void @_ZNSt10shared_ptrIN6open3d4core4BlobEEC2EDn(ptr noundef nonnull align 8 dereferenceable(16) %0, ptr %1) unnamed_addr #0 comdat align 2 {
  %3 = alloca ptr, align 8
  %4 = alloca ptr, align 8
  store ptr %0, ptr %3, align 8, !tbaa !189
  store ptr %1, ptr %4, align 8, !tbaa !191
  %5 = load ptr, ptr %3, align 8
  call void @_ZNSt10shared_ptrIN6open3d4core4BlobEEC2Ev(ptr noundef nonnull align 8 dereferenceable(16) %5) #27
  ret void
}

; Function Attrs: mustprogress nounwind ssp uwtable
define linkonce_odr void @_ZN6open3d4core8IsDeviceC2Ev(ptr noundef nonnull align 8 dereferenceable(8) %0) unnamed_addr #0 comdat align 2 {
  %2 = alloca ptr, align 8
  store ptr %0, ptr %2, align 8, !tbaa !30
  %3 = load ptr, ptr %2, align 8
  store ptr getelementptr inbounds inrange(-16, 24) ({ [5 x ptr] }, ptr @_ZTVN6open3d4core8IsDeviceE, i32 0, i32 0, i32 2), ptr %3, align 8, !tbaa !9
  ret void
}

; Function Attrs: mustprogress ssp uwtable
define linkonce_odr void @_ZN6open3d4core6TensorC2Ev(ptr noundef nonnull align 8 dereferenceable(160) %0) unnamed_addr #1 comdat align 2 personality ptr @__gxx_personality_v0 {
  %2 = alloca ptr, align 8
  %3 = alloca %"class.std::initializer_list.30", align 8
  %4 = alloca [1 x i64], align 8
  %5 = alloca ptr, align 8
  %6 = alloca i32, align 4
  %7 = alloca %"class.std::initializer_list.30", align 8
  %8 = alloca [1 x i64], align 8
  store ptr %0, ptr %2, align 8, !tbaa !134
  %9 = load ptr, ptr %2, align 8
  call void @_ZN6open3d4core8IsDeviceC2Ev(ptr noundef nonnull align 8 dereferenceable(8) %9) #27
  store ptr getelementptr inbounds inrange(-16, 24) ({ [5 x ptr] }, ptr @_ZTVN6open3d4core6TensorE, i32 0, i32 0, i32 2), ptr %9, align 8, !tbaa !9
  %10 = getelementptr inbounds nuw %"class.open3d::core::Tensor", ptr %9, i32 0, i32 1
  call void @llvm.lifetime.start.p0(i64 16, ptr %3) #27
  call void @llvm.lifetime.start.p0(i64 8, ptr %4) #27
  store i64 0, ptr %4, align 8, !tbaa !11
  %11 = getelementptr inbounds nuw %"class.std::initializer_list.30", ptr %3, i32 0, i32 0
  store ptr %4, ptr %11, align 8, !tbaa !137
  %12 = getelementptr inbounds nuw %"class.std::initializer_list.30", ptr %3, i32 0, i32 1
  store i64 1, ptr %12, align 8, !tbaa !139
  invoke void @_ZN6open3d4core10SizeVectorC1ERKSt16initializer_listIlE(ptr noundef nonnull align 8 dereferenceable(48) %10, ptr noundef nonnull align 8 dereferenceable(16) %3)
          to label %13 unwind label %21

13:                                               ; preds = %1
  call void @llvm.lifetime.end.p0(i64 8, ptr %4) #27
  call void @llvm.lifetime.end.p0(i64 16, ptr %3) #27
  %14 = getelementptr inbounds nuw %"class.open3d::core::Tensor", ptr %9, i32 0, i32 2
  call void @llvm.lifetime.start.p0(i64 16, ptr %7) #27
  call void @llvm.lifetime.start.p0(i64 8, ptr %8) #27
  store i64 1, ptr %8, align 8, !tbaa !11
  %15 = getelementptr inbounds nuw %"class.std::initializer_list.30", ptr %7, i32 0, i32 0
  store ptr %8, ptr %15, align 8, !tbaa !137
  %16 = getelementptr inbounds nuw %"class.std::initializer_list.30", ptr %7, i32 0, i32 1
  store i64 1, ptr %16, align 8, !tbaa !139
  invoke void @_ZN6open3d4core10SizeVectorC1ERKSt16initializer_listIlE(ptr noundef nonnull align 8 dereferenceable(48) %14, ptr noundef nonnull align 8 dereferenceable(16) %7)
          to label %17 unwind label %25

17:                                               ; preds = %13
  call void @llvm.lifetime.end.p0(i64 8, ptr %8) #27
  call void @llvm.lifetime.end.p0(i64 16, ptr %7) #27
  %18 = getelementptr inbounds nuw %"class.open3d::core::Tensor", ptr %9, i32 0, i32 3
  store ptr null, ptr %18, align 8, !tbaa !140
  %19 = getelementptr inbounds nuw %"class.open3d::core::Tensor", ptr %9, i32 0, i32 4
  call void @llvm.memcpy.p0.p0.i64(ptr align 8 %19, ptr align 8 @_ZN6open3d4core9UndefinedE, i64 32, i1 false), !tbaa.struct !20
  %20 = getelementptr inbounds nuw %"class.open3d::core::Tensor", ptr %9, i32 0, i32 5
  call void @_ZNSt10shared_ptrIN6open3d4core4BlobEEC2EDn(ptr noundef nonnull align 8 dereferenceable(16) %20, ptr null) #27
  ret void

21:                                               ; preds = %1
  %22 = landingpad { ptr, i32 }
          cleanup
  %23 = extractvalue { ptr, i32 } %22, 0
  store ptr %23, ptr %5, align 8
  %24 = extractvalue { ptr, i32 } %22, 1
  store i32 %24, ptr %6, align 4
  call void @llvm.lifetime.end.p0(i64 8, ptr %4) #27
  call void @llvm.lifetime.end.p0(i64 16, ptr %3) #27
  br label %29

25:                                               ; preds = %13
  %26 = landingpad { ptr, i32 }
          cleanup
  %27 = extractvalue { ptr, i32 } %26, 0
  store ptr %27, ptr %5, align 8
  %28 = extractvalue { ptr, i32 } %26, 1
  store i32 %28, ptr %6, align 4
  call void @llvm.lifetime.end.p0(i64 8, ptr %8) #27
  call void @llvm.lifetime.end.p0(i64 16, ptr %7) #27
  call void @_ZN6open3d4core11SmallVectorIlLj4EED2Ev(ptr noundef nonnull align 8 dereferenceable(48) %10) #27
  br label %29

29:                                               ; preds = %25, %21
  call void @_ZN6open3d4core8IsDeviceD2Ev(ptr noundef nonnull align 8 dereferenceable(8) %9) #27
  br label %30

30:                                               ; preds = %29
  %31 = load ptr, ptr %5, align 8
  %32 = load i32, ptr %6, align 4
  %33 = insertvalue { ptr, i32 } poison, ptr %31, 0
  %34 = insertvalue { ptr, i32 } %33, i32 %32, 1
  resume { ptr, i32 } %34
}

; Function Attrs: mustprogress ssp uwtable
define void @_ZN6open3d4core7HashMap5EraseERKNS0_6TensorE(ptr dead_on_unwind noalias writable sret(%"class.open3d::core::Tensor") align 8 %0, ptr noundef nonnull align 8 dereferenceable(152) %1, ptr noundef nonnull align 8 dereferenceable(160) %2) #1 align 2 personality ptr @__gxx_personality_v0 {
  %4 = alloca ptr, align 8
  %5 = alloca ptr, align 8
  %6 = alloca ptr, align 8
  %7 = alloca i1, align 1
  %8 = alloca ptr, align 8
  %9 = alloca i32, align 4
  store ptr %0, ptr %4, align 8
  store ptr %1, ptr %5, align 8, !tbaa !4
  store ptr %2, ptr %6, align 8, !tbaa !134
  %10 = load ptr, ptr %5, align 8
  store i1 false, ptr %7, align 1
  call void @_ZN6open3d4core6TensorC2Ev(ptr noundef nonnull align 8 dereferenceable(160) %0)
  %11 = load ptr, ptr %6, align 8, !tbaa !134
  invoke void @_ZN6open3d4core7HashMap5EraseERKNS0_6TensorERS2_(ptr noundef nonnull align 8 dereferenceable(152) %10, ptr noundef nonnull align 8 dereferenceable(160) %11, ptr noundef nonnull align 8 dereferenceable(160) %0)
          to label %12 unwind label %14

12:                                               ; preds = %3
  store i1 true, ptr %7, align 1
  %13 = load i1, ptr %7, align 1
  br i1 %13, label %19, label %18

14:                                               ; preds = %3
  %15 = landingpad { ptr, i32 }
          cleanup
  %16 = extractvalue { ptr, i32 } %15, 0
  store ptr %16, ptr %8, align 8
  %17 = extractvalue { ptr, i32 } %15, 1
  store i32 %17, ptr %9, align 4
  call void @_ZN6open3d4core6TensorD2Ev(ptr noundef nonnull align 8 dereferenceable(160) %0) #27
  br label %20

18:                                               ; preds = %12
  call void @_ZN6open3d4core6TensorD2Ev(ptr noundef nonnull align 8 dereferenceable(160) %0) #27
  br label %19

19:                                               ; preds = %18, %12
  ret void

20:                                               ; preds = %14
  %21 = load ptr, ptr %8, align 8
  %22 = load i32, ptr %9, align 4
  %23 = insertvalue { ptr, i32 } poison, ptr %21, 0
  %24 = insertvalue { ptr, i32 } %23, i32 %22, 1
  resume { ptr, i32 } %24
}